target datalayout = "e-m:e-p270:32:32-p271:32:32-p272:64:64-i64:64-i128:128-f80:128-n8:16:32:64-S128"
target triple = "x86_64-pc-linux-gnu"

@.str.109 = private unnamed_addr constant [7 x i8] c"KNX/IP\00", align 1
@.str.110 = private unnamed_addr constant [4 x i8] c"kip\00", align 1
@proto_knxip = internal global i32 0, align 4
@.str.111 = private unnamed_addr constant [10 x i8] c"udp.knxip\00", align 1
@.str.112 = private unnamed_addr constant [10 x i8] c"tcp.knxip\00", align 1
@.str.113 = private unnamed_addr constant [9 x i8] c"key_file\00", align 1
@.str.114 = private unnamed_addr constant [9 x i8] c"Key file\00", align 1
@.str.115 = private unnamed_addr constant [37 x i8] c"Keyring.XML file (exported from ETS)\00", align 1
@pref_key_file_name = internal global ptr null, align 8
@.str.116 = private unnamed_addr constant [13 x i8] c"key_file_pwd\00", align 1
@.str.117 = private unnamed_addr constant [18 x i8] c"Key file password\00", align 1
@.str.118 = private unnamed_addr constant [17 x i8] c"Keyring password\00", align 1
@pref_key_file_pwd = internal global ptr null, align 8
@.str.119 = private unnamed_addr constant [14 x i8] c"key_info_file\00", align 1
@.str.120 = private unnamed_addr constant [21 x i8] c"Key info output file\00", align 1
@.str.121 = private unnamed_addr constant [60 x i8] c"Output file (- for stdout) for keys extracted from key file\00", align 1
@pref_key_info_file_name = internal global ptr null, align 8
@.str.122 = private unnamed_addr constant [1 x i8] zeroinitializer, align 1
@.str.123 = private unnamed_addr constant [7 x i8] c"keys_0\00", align 1
@.str.124 = private unnamed_addr constant [20 x i8] c"KNX decryption keys\00", align 1
@.str.125 = private unnamed_addr constant [7 x i8] c"keys_1\00", align 1
@.str.126 = private unnamed_addr constant [108 x i8] c"(KNX/IP multicast/group keys, KNX/IP unicast session keys, KNX data-security tool keys and link-table keys)\00", align 1
@.str.127 = private unnamed_addr constant [7 x i8] c"keys_2\00", align 1
@.str.128 = private unnamed_addr constant [84 x i8] c"(format: 16 bytes as hex; example: A0 A1 A2 A3 A4 A5 A6 A7 A8 A9 AA AB AC AD AE AF)\00", align 1
@.str.129 = private unnamed_addr constant [7 x i8] c"key_%u\00", align 1
@.str.130 = private unnamed_addr constant [8 x i8] c"%u. key\00", align 1
@.str.131 = private unnamed_addr constant [103 x i8] c"KNX decryption key (format: 16 bytes as hex; example: A0 A1 A2 A3 A4 A5 A6 A7 A8 A9 AA AB AC AD AE AF)\00", align 1
@pref_key_texts = internal global [10 x ptr] zeroinitializer, align 16
@.str.132 = private unnamed_addr constant [10 x i8] c"desegment\00", align 1
@.str.133 = private unnamed_addr constant [59 x i8] c"Reassemble KNX/IP messages spanning multiple TCP segments.\00", align 1
@.str.134 = private unnamed_addr constant [208 x i8] c"Whether the KNX/IP dissector should reassemble messages spanning multiple TCP segments.  To use this option, you must also enable \22Allow subdissectors to reassemble TCP streams\22 in the TCP protocol settings.\00", align 1
@pref_desegment = internal global i8 1, align 1

; Function Attrs: null_pointer_is_valid sspstrong uwtable
define hidden void @proto_register_knxip() #0 {
  %1 = alloca ptr, align 8
  %2 = alloca ptr, align 8
  %3 = alloca i8, align 1
  %4 = alloca ptr, align 8
  %5 = alloca ptr, align 8
  call void @llvm.lifetime.start.p0(i64 8, ptr %1) #9
  call void @llvm.lifetime.start.p0(i64 8, ptr %2) #9
  call void @llvm.lifetime.start.p0(i64 1, ptr %3) #9
  %6 = call i32 @proto_register_protocol(ptr noundef @.str.109, ptr noundef @.str.109, ptr noundef @.str.110)
  store i32 %6, ptr @proto_knxip, align 4
  %7 = load i32, ptr @proto_knxip, align 4
  call void @proto_register_field_array(i32 noundef %7, ptr noundef @proto_register_knxip.hf, i32 noundef 53)
  call void @proto_register_subtree_array(ptr noundef @proto_register_knxip.ett, i32 noundef 18)
  %8 = load i32, ptr @proto_knxip, align 4
  %9 = call ptr @register_dissector(ptr noundef @.str.111, ptr noundef @dissect_udp_knxip, i32 noundef %8)
  %10 = load i32, ptr @proto_knxip, align 4
  %11 = call ptr @register_dissector(ptr noundef @.str.112, ptr noundef @dissect_tcp_knxip, i32 noundef %10)
  %12 = load i32, ptr @proto_knxip, align 4
  %13 = call ptr @expert_register_protocol(i32 noundef %12)
  store ptr %13, ptr %1, align 8
  %14 = load ptr, ptr %1, align 8
  call void @expert_register_field_array(ptr noundef %14, ptr noundef @proto_register_knxip.ei, i32 noundef 2)
  %15 = load i32, ptr @proto_knxip, align 4
  %16 = call ptr @prefs_register_protocol(i32 noundef %15, ptr noundef @proto_reg_handoff_knxip)
  store ptr %16, ptr %2, align 8
  %17 = load ptr, ptr %2, align 8
  call void @prefs_register_filename_preference(ptr noundef %17, ptr noundef @.str.113, ptr noundef @.str.114, ptr noundef @.str.115, ptr noundef @pref_key_file_name, i1 noundef zeroext false)
  %18 = load ptr, ptr %2, align 8
  call void @prefs_register_string_preference(ptr noundef %18, ptr noundef @.str.116, ptr noundef @.str.117, ptr noundef @.str.118, ptr noundef @pref_key_file_pwd)
  %19 = load ptr, ptr %2, align 8
  call void @prefs_register_filename_preference(ptr noundef %19, ptr noundef @.str.119, ptr noundef @.str.120, ptr noundef @.str.121, ptr noundef @pref_key_info_file_name, i1 noundef zeroext false)
  %20 = load ptr, ptr %2, align 8
  call void @prefs_register_static_text_preference(ptr noundef %20, ptr noundef @.str.122, ptr noundef @.str.122, ptr noundef null)
  %21 = load ptr, ptr %2, align 8
  call void @prefs_register_static_text_preference(ptr noundef %21, ptr noundef @.str.123, ptr noundef @.str.124, ptr noundef null)
  %22 = load ptr, ptr %2, align 8
  call void @prefs_register_static_text_preference(ptr noundef %22, ptr noundef @.str.125, ptr noundef @.str.126, ptr noundef null)
  %23 = load ptr, ptr %2, align 8
  call void @prefs_register_static_text_preference(ptr noundef %23, ptr noundef @.str.127, ptr noundef @.str.128, ptr noundef null)
  store i8 1, ptr %3, align 1
  br label %24

24:                                               ; preds = %45, %0
  %25 = load i8, ptr %3, align 1
  %26 = zext i8 %25 to i32
  %27 = icmp sle i32 %26, 10
  br i1 %27, label %28, label %48

28:                                               ; preds = %24
  call void @llvm.lifetime.start.p0(i64 8, ptr %4) #9
  %29 = call ptr @wmem_epan_scope()
  %30 = load i8, ptr %3, align 1
  %31 = zext i8 %30 to i32
  %32 = call noalias ptr (ptr, ptr, ...) @wmem_strdup_printf(ptr noundef %29, ptr noundef @.str.129, i32 noundef %31)
  store ptr %32, ptr %4, align 8
  call void @llvm.lifetime.start.p0(i64 8, ptr %5) #9
  %33 = call ptr @wmem_epan_scope()
  %34 = load i8, ptr %3, align 1
  %35 = zext i8 %34 to i32
  %36 = call noalias ptr (ptr, ptr, ...) @wmem_strdup_printf(ptr noundef %33, ptr noundef @.str.130, i32 noundef %35)
  store ptr %36, ptr %5, align 8
  %37 = load ptr, ptr %2, align 8
  %38 = load ptr, ptr %4, align 8
  %39 = load ptr, ptr %5, align 8
  %40 = load i8, ptr %3, align 1
  %41 = zext i8 %40 to i32
  %42 = sub i32 %41, 1
  %43 = sext i32 %42 to i64
  %44 = getelementptr [10 x ptr], ptr @pref_key_texts, i64 0, i64 %43
  call void @prefs_register_string_preference(ptr noundef %37, ptr noundef %38, ptr noundef %39, ptr noundef @.str.131, ptr noundef %44)
  call void @llvm.lifetime.end.p0(i64 8, ptr %5) #9
  call void @llvm.lifetime.end.p0(i64 8, ptr %4) #9
  br label %45

45:                                               ; preds = %28
  %46 = load i8, ptr %3, align 1
  %47 = add i8 %46, 1
  store i8 %47, ptr %3, align 1
  br label %24, !llvm.loop !6

48:                                               ; preds = %24
  %49 = load ptr, ptr %2, align 8
  call void @prefs_register_bool_preference(ptr noundef %49, ptr noundef @.str.132, ptr noundef @.str.133, ptr noundef @.str.134, ptr noundef @pref_desegment)
  call void @llvm.lifetime.end.p0(i64 1, ptr %3) #9
  call void @llvm.lifetime.end.p0(i64 8, ptr %2) #9
  call void @llvm.lifetime.end.p0(i64 8, ptr %1) #9
  ret void
}