; Function Attrs: null_pointer_is_valid sspstrong uwtable
define hidden void @proto_register_knxip() local_unnamed_addr #0 {
  %1 = tail call i32 @proto_register_protocol(ptr noundef nonnull @.str.109, ptr noundef nonnull @.str.109, ptr noundef nonnull @.str.110)
  store i32 %1, ptr @proto_knxip, align 4
  tail call void @proto_register_field_array(i32 noundef %1, ptr noundef nonnull @proto_register_knxip.hf, i32 noundef 53)
  tail call void @proto_register_subtree_array(ptr noundef nonnull @proto_register_knxip.ett, i32 noundef 18)
  %2 = load i32, ptr @proto_knxip, align 4
  %3 = tail call ptr @register_dissector(ptr noundef nonnull @.str.111, ptr noundef nonnull @dissect_udp_knxip, i32 noundef %2)
  %4 = load i32, ptr @proto_knxip, align 4
  %5 = tail call ptr @register_dissector(ptr noundef nonnull @.str.112, ptr noundef nonnull @dissect_tcp_knxip, i32 noundef %4)
  %6 = load i32, ptr @proto_knxip, align 4
  %7 = tail call ptr @expert_register_protocol(i32 noundef %6)
  tail call void @expert_register_field_array(ptr noundef %7, ptr noundef nonnull @proto_register_knxip.ei, i32 noundef 2)
  %8 = load i32, ptr @proto_knxip, align 4
  %9 = tail call ptr @prefs_register_protocol(i32 noundef %8, ptr noundef nonnull @proto_reg_handoff_knxip)
  tail call void @prefs_register_filename_preference(ptr noundef %9, ptr noundef nonnull @.str.113, ptr noundef nonnull @.str.114, ptr noundef nonnull @.str.115, ptr noundef nonnull @pref_key_file_name, i1 noundef zeroext false)
  tail call void @prefs_register_string_preference(ptr noundef %9, ptr noundef nonnull @.str.116, ptr noundef nonnull @.str.117, ptr noundef nonnull @.str.118, ptr noundef nonnull @pref_key_file_pwd)
  tail call void @prefs_register_filename_preference(ptr noundef %9, ptr noundef nonnull @.str.119, ptr noundef nonnull @.str.120, ptr noundef nonnull @.str.121, ptr noundef nonnull @pref_key_info_file_name, i1 noundef zeroext false)
  tail call void @prefs_register_static_text_preference(ptr noundef %9, ptr noundef nonnull @.str.122, ptr noundef nonnull @.str.122, ptr noundef null)
  tail call void @prefs_register_static_text_preference(ptr noundef %9, ptr noundef nonnull @.str.123, ptr noundef nonnull @.str.124, ptr noundef null)
  tail call void @prefs_register_static_text_preference(ptr noundef %9, ptr noundef nonnull @.str.125, ptr noundef nonnull @.str.126, ptr noundef null)
  tail call void @prefs_register_static_text_preference(ptr noundef %9, ptr noundef nonnull @.str.127, ptr noundef nonnull @.str.128, ptr noundef null)
  br label %10

10:                                               ; preds = %0, %10
  %indvars.iv18 = phi i64 [ 1, %0 ], [ %indvars.iv.next19, %10 ]
  %11 = tail call ptr @wmem_epan_scope()
  %12 = trunc nuw nsw i64 %indvars.iv18 to i32
  %13 = tail call noalias ptr (ptr, ptr, ...) @wmem_strdup_printf(ptr noundef %11, ptr noundef nonnull @.str.129, i32 noundef %12)
  %14 = tail call ptr @wmem_epan_scope()
  %15 = tail call noalias ptr (ptr, ptr, ...) @wmem_strdup_printf(ptr noundef %14, ptr noundef nonnull @.str.130, i32 noundef %12)
  %16 = add nsw i64 %indvars.iv18, -1
  %17 = getelementptr [10 x ptr], ptr @pref_key_texts, i64 0, i64 %16
  tail call void @prefs_register_string_preference(ptr noundef %9, ptr noundef %13, ptr noundef %15, ptr noundef nonnull @.str.131, ptr noundef %17)
  %indvars.iv.next19 = add nuw nsw i64 %indvars.iv18, 1
  %exitcond.not = icmp eq i64 %indvars.iv.next19, 11
  br i1 %exitcond.not, label %18, label %10, !llvm.loop !6

18:                                               ; preds = %10
  tail call void @prefs_register_bool_preference(ptr noundef %9, ptr noundef nonnull @.str.132, ptr noundef nonnull @.str.133, ptr noundef nonnull @.str.134, ptr noundef nonnull @pref_desegment)
  ret void
}